; Function Attrs: nounwind uwtable
define zeroext range(i8 0, 2) i8 @l_Array_anyMUnsafe_any___at_Lean_Linter_MissingDocs_hasInheritDoc___spec__1(ptr noundef readonly captures(none) %0, i64 noundef %1, i64 noundef %2) local_unnamed_addr #0 {
  %.not64 = icmp eq i64 %1, %2
  br i1 %.not64, label %lean_dec.exit._crit_edge, label %.lr.ph

.lr.ph:                                           ; preds = %3
  %4 = getelementptr inbounds nuw i8, ptr %0, i64 24
  br label %5

5:                                                ; preds = %.lr.ph, %lean_dec.exit41
  %.03265 = phi i64 [ %1, %.lr.ph ], [ %.335, %lean_dec.exit41 ]
  %6 = getelementptr inbounds nuw [0 x ptr], ptr %4, i64 0, i64 %.03265
  %7 = load ptr, ptr %6, align 8, !tbaa !4
  %8 = ptrtoint ptr %7 to i64
  %9 = and i64 %8, 1
  %.not.i51 = icmp eq i64 %9, 0
  br i1 %.not.i51, label %10, label %lean_array_uget.exit

10:                                               ; preds = %5
  %.val.i.i = load i32, ptr %7, align 4, !tbaa !8
  %11 = icmp sgt i32 %.val.i.i, 0
  br i1 %11, label %12, label %14, !prof !11

12:                                               ; preds = %10
  %13 = add nuw i32 %.val.i.i, 1
  store i32 %13, ptr %7, align 4, !tbaa !8
  br label %17

14:                                               ; preds = %10
  %.not.i.i = icmp eq i32 %.val.i.i, 0
  br i1 %.not.i.i, label %17, label %15

15:                                               ; preds = %14
  tail call void @lean_inc_ref_cold(ptr noundef nonnull %7) #5
  br label %17

lean_array_uget.exit:                             ; preds = %5
  %16 = tail call ptr @l_Lean_Syntax_getArg(ptr noundef %7, ptr noundef nonnull inttoptr (i64 3 to ptr)) #5
  br label %lean_dec.exit42

17:                                               ; preds = %12, %14, %15
  %18 = tail call ptr @l_Lean_Syntax_getArg(ptr noundef nonnull %7, ptr noundef nonnull inttoptr (i64 3 to ptr)) #5
  %19 = load i32, ptr %7, align 4, !tbaa !8
  %20 = icmp sgt i32 %19, 1
  br i1 %20, label %21, label %23, !prof !11

21:                                               ; preds = %17
  %22 = add nsw i32 %19, -1
  store i32 %22, ptr %7, align 4, !tbaa !8
  br label %lean_dec.exit42

23:                                               ; preds = %17
  %.not.i = icmp eq i32 %19, 0
  br i1 %.not.i, label %lean_dec.exit42, label %24

24:                                               ; preds = %23
  tail call void @lean_dec_ref_cold(ptr noundef nonnull %7) #5
  br label %lean_dec.exit42

lean_dec.exit42:                                  ; preds = %24, %23, %21, %lean_array_uget.exit
  %25 = phi ptr [ %16, %lean_array_uget.exit ], [ %18, %21 ], [ %18, %23 ], [ %18, %24 ]
  %26 = load ptr, ptr @l_Array_anyMUnsafe_any___at_Lean_Linter_MissingDocs_hasInheritDoc___spec__1___closed__4, align 8, !tbaa !4
  %27 = ptrtoint ptr %25 to i64
  %28 = and i64 %27, 1
  %.not61 = icmp eq i64 %28, 0
  br i1 %.not61, label %29, label %lean_inc.exit.thread

29:                                               ; preds = %lean_dec.exit42
  %.val.i = load i32, ptr %25, align 4, !tbaa !8
  %30 = icmp sgt i32 %.val.i, 0
  br i1 %30, label %31, label %33, !prof !11

31:                                               ; preds = %29
  %32 = add nuw i32 %.val.i, 1
  store i32 %32, ptr %25, align 4, !tbaa !8
  br label %lean_inc.exit

33:                                               ; preds = %29
  %.not.i52 = icmp eq i32 %.val.i, 0
  br i1 %.not.i52, label %lean_inc.exit, label %34

34:                                               ; preds = %33
  tail call void @lean_inc_ref_cold(ptr noundef nonnull %25) #5
  br label %lean_inc.exit

lean_inc.exit:                                    ; preds = %34, %33, %31
  %35 = tail call zeroext i8 @l_Lean_Syntax_isOfKind(ptr noundef nonnull %25, ptr noundef %26) #5
  %36 = icmp eq i8 %35, 0
  br i1 %36, label %40, label %47

lean_inc.exit.thread:                             ; preds = %lean_dec.exit42
  %37 = tail call zeroext i8 @l_Lean_Syntax_isOfKind(ptr noundef %25, ptr noundef %26) #5
  %38 = icmp eq i8 %37, 0
  br i1 %38, label %lean_dec.exit41, label %.thread53

.thread53:                                        ; preds = %lean_inc.exit.thread
  %39 = tail call ptr @l_Lean_Syntax_getArg(ptr noundef %25, ptr noundef nonnull inttoptr (i64 1 to ptr)) #5
  br label %lean_dec.exit40

40:                                               ; preds = %lean_inc.exit
  %41 = load i32, ptr %25, align 4, !tbaa !8
  %42 = icmp sgt i32 %41, 1
  br i1 %42, label %43, label %45, !prof !11

43:                                               ; preds = %40
  %44 = add nsw i32 %41, -1
  store i32 %44, ptr %25, align 4, !tbaa !8
  br label %lean_dec.exit41

45:                                               ; preds = %40
  %.not.i43 = icmp eq i32 %41, 0
  br i1 %.not.i43, label %lean_dec.exit41, label %46

46:                                               ; preds = %45
  tail call void @lean_dec_ref_cold(ptr noundef nonnull %25) #5
  br label %lean_dec.exit41

47:                                               ; preds = %lean_inc.exit
  %48 = tail call ptr @l_Lean_Syntax_getArg(ptr noundef nonnull %25, ptr noundef nonnull inttoptr (i64 1 to ptr)) #5
  %49 = load i32, ptr %25, align 4, !tbaa !8
  %50 = icmp sgt i32 %49, 1
  br i1 %50, label %51, label %53, !prof !11

51:                                               ; preds = %47
  %52 = add nsw i32 %49, -1
  store i32 %52, ptr %25, align 4, !tbaa !8
  br label %lean_dec.exit40

53:                                               ; preds = %47
  %.not.i45 = icmp eq i32 %49, 0
  br i1 %.not.i45, label %lean_dec.exit40, label %54

54:                                               ; preds = %53
  tail call void @lean_dec_ref_cold(ptr noundef nonnull %25) #5
  br label %lean_dec.exit40

lean_dec.exit40:                                  ; preds = %54, %53, %51, %.thread53
  %55 = phi ptr [ %39, %.thread53 ], [ %48, %51 ], [ %48, %53 ], [ %48, %54 ]
  %56 = tail call ptr @l_Lean_Syntax_getId(ptr noundef %55) #5
  %57 = ptrtoint ptr %55 to i64
  %58 = and i64 %57, 1
  %.not62 = icmp eq i64 %58, 0
  br i1 %.not62, label %59, label %lean_dec.exit39

59:                                               ; preds = %lean_dec.exit40
  %60 = load i32, ptr %55, align 4, !tbaa !8
  %61 = icmp sgt i32 %60, 1
  br i1 %61, label %62, label %64, !prof !11

62:                                               ; preds = %59
  %63 = add nsw i32 %60, -1
  store i32 %63, ptr %55, align 4, !tbaa !8
  br label %lean_dec.exit39

64:                                               ; preds = %59
  %.not.i47 = icmp eq i32 %60, 0
  br i1 %.not.i47, label %lean_dec.exit39, label %65

65:                                               ; preds = %64
  tail call void @lean_dec_ref_cold(ptr noundef nonnull %55) #5
  br label %lean_dec.exit39

lean_dec.exit39:                                  ; preds = %65, %64, %62, %lean_dec.exit40
  %66 = tail call ptr @lean_erase_macro_scopes(ptr noundef %56) #5
  %67 = load ptr, ptr @l_Array_anyMUnsafe_any___at_Lean_Linter_MissingDocs_hasInheritDoc___spec__1___closed__6, align 8, !tbaa !4
  %68 = tail call zeroext i8 @lean_name_eq(ptr noundef %66, ptr noundef %67) #5
  %69 = ptrtoint ptr %66 to i64
  %70 = and i64 %69, 1
  %.not63 = icmp eq i64 %70, 0
  br i1 %.not63, label %71, label %lean_dec.exit

71:                                               ; preds = %lean_dec.exit39
  %72 = load i32, ptr %66, align 4, !tbaa !8
  %73 = icmp sgt i32 %72, 1
  br i1 %73, label %74, label %76, !prof !11

74:                                               ; preds = %71
  %75 = add nsw i32 %72, -1
  store i32 %75, ptr %66, align 4, !tbaa !8
  br label %lean_dec.exit

76:                                               ; preds = %71
  %.not.i49 = icmp eq i32 %72, 0
  br i1 %.not.i49, label %lean_dec.exit, label %77

77:                                               ; preds = %76
  tail call void @lean_dec_ref_cold(ptr noundef nonnull %66) #5
  br label %lean_dec.exit

lean_dec.exit:                                    ; preds = %77, %76, %74, %lean_dec.exit39
  %78 = icmp eq i8 %68, 0
  br i1 %78, label %lean_dec.exit41, label %lean_dec.exit._crit_edge

lean_dec.exit41:                                  ; preds = %lean_dec.exit, %43, %45, %46, %lean_inc.exit.thread
  %.335 = add i64 %.03265, 1
  %.not = icmp eq i64 %.335, %2
  br i1 %.not, label %lean_dec.exit._crit_edge, label %5

lean_dec.exit._crit_edge:                         ; preds = %lean_dec.exit41, %lean_dec.exit, %3
  %.3.ph = phi i8 [ 0, %3 ], [ 1, %lean_dec.exit ], [ 0, %lean_dec.exit41 ]
  ret i8 %.3.ph
}